target datalayout = "e-m:e-p270:32:32-p271:32:32-p272:64:64-i64:64-i128:128-f80:128-n8:16:32:64-S128"
target triple = "x86_64-pc-linux-gnu"

%class.TransTableS = type <{ %class.TransTable, [14 x i64], %"struct.TransTableS::statsResetsType", [4 x i8], [5 x %"struct.TransTableS::winCardType"], i32, i32, i64, i64, i64, i32, i32, i32, i32, i32, i8, [3 x i8], i32, [4 x i8], ptr, [14 x [4 x ptr]], ptr, ptr, [14 x [4 x ptr]], ptr, ptr, [14 x [4 x ptr]], i32, i32, [14 x [4 x i32]], [14 x [4 x i32]], %"class.std::vector", [14 x i64], i32, [4 x i8] }>
%class.TransTable = type { ptr }
%"struct.TransTableS::statsResetsType" = type { i32, [6 x i32] }
%"struct.TransTableS::winCardType" = type { i32, i32, ptr, ptr, ptr, ptr }
%"class.std::vector" = type { %"struct.std::_Vector_base" }
%"struct.std::_Vector_base" = type { %"struct.std::_Vector_base<std::__cxx11::basic_string<char>, std::allocator<std::__cxx11::basic_string<char>>>::_Vector_impl" }
%"struct.std::_Vector_base<std::__cxx11::basic_string<char>, std::allocator<std::__cxx11::basic_string<char>>>::_Vector_impl" = type { %"struct.std::_Vector_base<std::__cxx11::basic_string<char>, std::allocator<std::__cxx11::basic_string<char>>>::_Vector_impl_data" }
%"struct.std::_Vector_base<std::__cxx11::basic_string<char>, std::allocator<std::__cxx11::basic_string<char>>>::_Vector_impl_data" = type { ptr, ptr, ptr }

; Function Attrs: mustprogress nounwind uwtable
define void @_ZN11TransTableS15ReturnAllMemoryEv(ptr noundef nonnull align 8 dereferenceable(2396) %0) unnamed_addr #5 align 2 {
  %2 = alloca ptr, align 8
  %3 = alloca i32, align 4
  %4 = alloca i32, align 4
  store ptr %0, ptr %2, align 8
  %5 = load ptr, ptr %2, align 8
  %6 = getelementptr inbounds nuw %class.TransTableS, ptr %5, i32 0, i32 33
  %7 = load i32, ptr %6, align 8
  %8 = icmp ne i32 %7, 0
  br i1 %8, label %10, label %9

9:                                                ; preds = %1
  br label %112

10:                                               ; preds = %1
  %11 = getelementptr inbounds nuw %class.TransTableS, ptr %5, i32 0, i32 33
  store i32 0, ptr %11, align 8
  call void @_ZN11TransTableS4WipeEv(ptr noundef nonnull align 8 dereferenceable(2396) %5)
  %12 = getelementptr inbounds nuw %class.TransTableS, ptr %5, i32 0, i32 21
  %13 = load ptr, ptr %12, align 8
  %14 = getelementptr inbounds ptr, ptr %13, i64 0
  %15 = load ptr, ptr %14, align 8
  %16 = icmp ne ptr %15, null
  br i1 %16, label %17, label %22

17:                                               ; preds = %10
  %18 = getelementptr inbounds nuw %class.TransTableS, ptr %5, i32 0, i32 21
  %19 = load ptr, ptr %18, align 8
  %20 = getelementptr inbounds ptr, ptr %19, i64 0
  %21 = load ptr, ptr %20, align 8
  call void @free(ptr noundef %21) #3
  br label %22

22:                                               ; preds = %17, %10
  %23 = getelementptr inbounds nuw %class.TransTableS, ptr %5, i32 0, i32 21
  %24 = load ptr, ptr %23, align 8
  %25 = getelementptr inbounds ptr, ptr %24, i64 0
  store ptr null, ptr %25, align 8
  %26 = getelementptr inbounds nuw %class.TransTableS, ptr %5, i32 0, i32 22
  %27 = load ptr, ptr %26, align 8
  %28 = getelementptr inbounds ptr, ptr %27, i64 0
  %29 = load ptr, ptr %28, align 8
  %30 = icmp ne ptr %29, null
  br i1 %30, label %31, label %36

31:                                               ; preds = %22
  %32 = getelementptr inbounds nuw %class.TransTableS, ptr %5, i32 0, i32 22
  %33 = load ptr, ptr %32, align 8
  %34 = getelementptr inbounds ptr, ptr %33, i64 0
  %35 = load ptr, ptr %34, align 8
  call void @free(ptr noundef %35) #3
  br label %36

36:                                               ; preds = %31, %22
  %37 = getelementptr inbounds nuw %class.TransTableS, ptr %5, i32 0, i32 22
  %38 = load ptr, ptr %37, align 8
  %39 = getelementptr inbounds ptr, ptr %38, i64 0
  store ptr null, ptr %39, align 8
  store i32 1, ptr %3, align 4
  br label %40

40:                                               ; preds = %84, %36
  %41 = load i32, ptr %3, align 4
  %42 = icmp sle i32 %41, 13
  br i1 %42, label %43, label %87

43:                                               ; preds = %40
  store i32 0, ptr %4, align 4
  br label %44

44:                                               ; preds = %80, %43
  %45 = load i32, ptr %4, align 4
  %46 = icmp slt i32 %45, 4
  br i1 %46, label %47, label %83

47:                                               ; preds = %44
  %48 = getelementptr inbounds nuw %class.TransTableS, ptr %5, i32 0, i32 23
  %49 = load i32, ptr %3, align 4
  %50 = sext i32 %49 to i64
  %51 = getelementptr inbounds [14 x [4 x ptr]], ptr %48, i64 0, i64 %50
  %52 = load i32, ptr %4, align 4
  %53 = sext i32 %52 to i64
  %54 = getelementptr inbounds [4 x ptr], ptr %51, i64 0, i64 %53
  %55 = load ptr, ptr %54, align 8
  %56 = getelementptr inbounds ptr, ptr %55, i64 0
  %57 = load ptr, ptr %56, align 8
  %58 = icmp ne ptr %57, null
  br i1 %58, label %59, label %70

59:                                               ; preds = %47
  %60 = getelementptr inbounds nuw %class.TransTableS, ptr %5, i32 0, i32 23
  %61 = load i32, ptr %3, align 4
  %62 = sext i32 %61 to i64
  %63 = getelementptr inbounds [14 x [4 x ptr]], ptr %60, i64 0, i64 %62
  %64 = load i32, ptr %4, align 4
  %65 = sext i32 %64 to i64
  %66 = getelementptr inbounds [4 x ptr], ptr %63, i64 0, i64 %65
  %67 = load ptr, ptr %66, align 8
  %68 = getelementptr inbounds ptr, ptr %67, i64 0
  %69 = load ptr, ptr %68, align 8
  call void @free(ptr noundef %69) #3
  br label %70

70:                                               ; preds = %59, %47
  %71 = getelementptr inbounds nuw %class.TransTableS, ptr %5, i32 0, i32 23
  %72 = load i32, ptr %3, align 4
  %73 = sext i32 %72 to i64
  %74 = getelementptr inbounds [14 x [4 x ptr]], ptr %71, i64 0, i64 %73
  %75 = load i32, ptr %4, align 4
  %76 = sext i32 %75 to i64
  %77 = getelementptr inbounds [4 x ptr], ptr %74, i64 0, i64 %76
  %78 = load ptr, ptr %77, align 8
  %79 = getelementptr inbounds ptr, ptr %78, i64 0
  store ptr null, ptr %79, align 8
  br label %80

80:                                               ; preds = %70
  %81 = load i32, ptr %4, align 4
  %82 = add nsw i32 %81, 1
  store i32 %82, ptr %4, align 4
  br label %44, !llvm.loop !6

83:                                               ; preds = %44
  br label %84

84:                                               ; preds = %83
  %85 = load i32, ptr %3, align 4
  %86 = add nsw i32 %85, 1
  store i32 %86, ptr %3, align 4
  br label %40, !llvm.loop !7

87:                                               ; preds = %40
  %88 = getelementptr inbounds nuw %class.TransTableS, ptr %5, i32 0, i32 21
  %89 = load ptr, ptr %88, align 8
  %90 = icmp ne ptr %89, null
  br i1 %90, label %91, label %94

91:                                               ; preds = %87
  %92 = getelementptr inbounds nuw %class.TransTableS, ptr %5, i32 0, i32 21
  %93 = load ptr, ptr %92, align 8
  call void @free(ptr noundef %93) #3
  br label %94

94:                                               ; preds = %91, %87
  %95 = getelementptr inbounds nuw %class.TransTableS, ptr %5, i32 0, i32 21
  store ptr null, ptr %95, align 8
  %96 = getelementptr inbounds nuw %class.TransTableS, ptr %5, i32 0, i32 22
  %97 = load ptr, ptr %96, align 8
  %98 = icmp ne ptr %97, null
  br i1 %98, label %99, label %102

99:                                               ; preds = %94
  %100 = getelementptr inbounds nuw %class.TransTableS, ptr %5, i32 0, i32 22
  %101 = load ptr, ptr %100, align 8
  call void @free(ptr noundef %101) #3
  br label %102

102:                                              ; preds = %99, %94
  %103 = getelementptr inbounds nuw %class.TransTableS, ptr %5, i32 0, i32 22
  store ptr null, ptr %103, align 8
  %104 = getelementptr inbounds nuw %class.TransTableS, ptr %5, i32 0, i32 19
  %105 = load ptr, ptr %104, align 8
  %106 = icmp ne ptr %105, null
  br i1 %106, label %107, label %110

107:                                              ; preds = %102
  %108 = getelementptr inbounds nuw %class.TransTableS, ptr %5, i32 0, i32 19
  %109 = load ptr, ptr %108, align 8
  call void @free(ptr noundef %109) #3
  br label %110

110:                                              ; preds = %107, %102
  %111 = getelementptr inbounds nuw %class.TransTableS, ptr %5, i32 0, i32 19
  store ptr null, ptr %111, align 8
  br label %112

112:                                              ; preds = %110, %9
  ret void
}