; Function Attrs: mustprogress nounwind uwtable
define void @_ZN11TransTableS15ReturnAllMemoryEv(ptr nocapture noundef nonnull align 8 dereferenceable(2396) %0) unnamed_addr #5 align 2 {
  %2 = getelementptr inbounds nuw i8, ptr %0, i64 2392
  %3 = load i32, ptr %2, align 8
  %.not = icmp eq i32 %3, 0
  br i1 %.not, label %37, label %4

4:                                                ; preds = %1
  store i32 0, ptr %2, align 8
  tail call void @_ZN11TransTableS4WipeEv(ptr noundef nonnull align 8 dereferenceable(2396) %0)
  %5 = getelementptr inbounds nuw i8, ptr %0, i64 872
  %6 = load ptr, ptr %5, align 8
  %7 = load ptr, ptr %6, align 8
  %.not17 = icmp eq ptr %7, null
  br i1 %.not17, label %9, label %8

8:                                                ; preds = %4
  tail call void @free(ptr noundef nonnull %7) #26
  %.pre = load ptr, ptr %5, align 8
  br label %9

9:                                                ; preds = %8, %4
  %10 = phi ptr [ %.pre, %8 ], [ %6, %4 ]
  store ptr null, ptr %10, align 8
  %11 = getelementptr inbounds nuw i8, ptr %0, i64 880
  %12 = load ptr, ptr %11, align 8
  %13 = load ptr, ptr %12, align 8
  %.not18 = icmp eq ptr %13, null
  br i1 %.not18, label %15, label %14

14:                                               ; preds = %9
  tail call void @free(ptr noundef nonnull %13) #26
  %.pre30 = load ptr, ptr %11, align 8
  br label %15

15:                                               ; preds = %14, %9
  %16 = phi ptr [ %.pre30, %14 ], [ %12, %9 ]
  store ptr null, ptr %16, align 8
  %17 = getelementptr inbounds nuw i8, ptr %0, i64 888
  br label %.preheader

.preheader:                                       ; preds = %15, %25
  %indvars.iv26 = phi i64 [ 1, %15 ], [ %indvars.iv.next27, %25 ]
  br label %18

18:                                               ; preds = %.preheader, %23
  %indvars.iv = phi i64 [ 0, %.preheader ], [ %indvars.iv.next, %23 ]
  %19 = getelementptr inbounds [14 x [4 x ptr]], ptr %17, i64 0, i64 %indvars.iv26, i64 %indvars.iv
  %20 = load ptr, ptr %19, align 8
  %21 = load ptr, ptr %20, align 8
  %.not22 = icmp eq ptr %21, null
  br i1 %.not22, label %23, label %22

22:                                               ; preds = %18
  tail call void @free(ptr noundef nonnull %21) #26
  %.pre31 = load ptr, ptr %19, align 8
  br label %23

23:                                               ; preds = %22, %18
  %24 = phi ptr [ %.pre31, %22 ], [ %20, %18 ]
  store ptr null, ptr %24, align 8
  %indvars.iv.next = add nuw nsw i64 %indvars.iv, 1
  %exitcond.not = icmp eq i64 %indvars.iv.next, 4
  br i1 %exitcond.not, label %25, label %18, !llvm.loop !7

25:                                               ; preds = %23
  %indvars.iv.next27 = add nuw nsw i64 %indvars.iv26, 1
  %exitcond29.not = icmp eq i64 %indvars.iv.next27, 14
  br i1 %exitcond29.not, label %26, label %.preheader, !llvm.loop !8

26:                                               ; preds = %25
  %27 = load ptr, ptr %5, align 8
  %.not19 = icmp eq ptr %27, null
  br i1 %.not19, label %29, label %28

28:                                               ; preds = %26
  tail call void @free(ptr noundef nonnull %27) #26
  br label %29

29:                                               ; preds = %28, %26
  store ptr null, ptr %5, align 8
  %30 = load ptr, ptr %11, align 8
  %.not20 = icmp eq ptr %30, null
  br i1 %.not20, label %32, label %31

31:                                               ; preds = %29
  tail call void @free(ptr noundef nonnull %30) #26
  br label %32

32:                                               ; preds = %31, %29
  store ptr null, ptr %11, align 8
  %33 = getelementptr inbounds nuw i8, ptr %0, i64 416
  %34 = load ptr, ptr %33, align 8
  %.not21 = icmp eq ptr %34, null
  br i1 %.not21, label %36, label %35

35:                                               ; preds = %32
  tail call void @free(ptr noundef nonnull %34) #26
  br label %36

36:                                               ; preds = %35, %32
  store ptr null, ptr %33, align 8
  br label %37

37:                                               ; preds = %1, %36
  ret void
}